; Function Attrs: mustprogress uwtable
define internal void @_ZN2cvL12randShuffle_INS_3VecIiLi4EEEEEvRNS_3MatERNS_3RNGEd(ptr noundef nonnull align 8 dereferenceable(96) %0, ptr nocapture noundef nonnull align 8 dereferenceable(8) %1, double %2) #1 personality ptr @__gxx_personality_v0 {
  %.sroa.0.i46 = alloca [4 x i32], align 4
  %.sroa.0.i = alloca [4 x i32], align 4
  %4 = alloca %"class.std::__cxx11::basic_string", align 8
  %5 = alloca %"class.std::allocator", align 1
  %6 = tail call noundef i64 @_ZNK2cv3Mat5totalEv(ptr noundef nonnull align 8 dereferenceable(96) %0)
  %7 = trunc i64 %6 to i32
  %8 = load i32, ptr %0, align 8
  %9 = and i32 %8, 16384
  %.not = icmp eq i32 %9, 0
  br i1 %.not, label %23, label %10

10:                                               ; preds = %3
  %11 = getelementptr inbounds i8, ptr %0, i64 16
  %12 = load ptr, ptr %11, align 8
  %.not54 = icmp eq i32 %7, 0
  br i1 %.not54, label %.loopexit, label %.lr.ph.preheader

.lr.ph.preheader:                                 ; preds = %10
  %wide.trip.count = and i64 %6, 4294967295
  br label %.lr.ph

.lr.ph:                                           ; preds = %.lr.ph.preheader, %.lr.ph
  %indvars.iv = phi i64 [ 0, %.lr.ph.preheader ], [ %indvars.iv.next, %.lr.ph ]
  %13 = load i64, ptr %1, align 8
  %14 = and i64 %13, 4294967295
  %15 = mul nuw i64 %14, 4164903690
  %16 = lshr i64 %13, 32
  %17 = add nuw i64 %15, %16
  store i64 %17, ptr %1, align 8
  %18 = trunc i64 %17 to i32
  %19 = urem i32 %18, %7
  %20 = zext i32 %19 to i64
  %21 = getelementptr inbounds %"class.cv::Vec.12", ptr %12, i64 %20
  %22 = getelementptr inbounds %"class.cv::Vec.12", ptr %12, i64 %indvars.iv
  call void @llvm.lifetime.start.p0(i64 16, ptr nonnull %.sroa.0.i)
  call void @llvm.memcpy.p0.p0.i64(ptr noundef nonnull align 4 dereferenceable(16) %.sroa.0.i, ptr noundef nonnull align 4 dereferenceable(16) %21, i64 16, i1 false)
  tail call void @llvm.memcpy.p0.p0.i64(ptr noundef nonnull align 4 dereferenceable(16) %21, ptr noundef nonnull align 4 dereferenceable(16) %22, i64 16, i1 false)
  call void @llvm.memcpy.p0.p0.i64(ptr noundef nonnull align 4 dereferenceable(16) %22, ptr noundef nonnull align 4 dereferenceable(16) %.sroa.0.i, i64 16, i1 false)
  call void @llvm.lifetime.end.p0(i64 16, ptr nonnull %.sroa.0.i)
  %indvars.iv.next = add nuw nsw i64 %indvars.iv, 1
  %exitcond.not = icmp eq i64 %indvars.iv.next, %wide.trip.count
  br i1 %exitcond.not, label %.loopexit, label %.lr.ph, !llvm.loop !61

23:                                               ; preds = %3
  %24 = getelementptr inbounds i8, ptr %0, i64 4
  %25 = load i32, ptr %24, align 4
  %26 = icmp slt i32 %25, 3
  br i1 %26, label %35, label %27

27:                                               ; preds = %23
  call void @_ZNSaIcEC1Ev(ptr noundef nonnull align 1 dereferenceable(1) %5) #19
  invoke void @_ZNSt7__cxx1112basic_stringIcSt11char_traitsIcESaIcEEC1EPKcRKS3_(ptr noundef nonnull align 8 dereferenceable(32) %4, ptr noundef nonnull @.str.11, ptr noundef nonnull align 1 dereferenceable(1) %5)
          to label %28 unwind label %30

28:                                               ; preds = %27
  invoke void @_ZN2cv5errorEiRKNSt7__cxx1112basic_stringIcSt11char_traitsIcESaIcEEEPKcS9_i(i32 noundef -215, ptr noundef nonnull align 8 dereferenceable(32) %4, ptr noundef nonnull @__func__._ZN2cvL12randShuffle_IhEEvRNS_3MatERNS_3RNGEd, ptr noundef nonnull @.str.1, i32 noundef 697) #20
          to label %29 unwind label %32

29:                                               ; preds = %28
  unreachable

30:                                               ; preds = %27
  %31 = landingpad { ptr, i32 }
          cleanup
  br label %34

32:                                               ; preds = %28
  %33 = landingpad { ptr, i32 }
          cleanup
  call void @_ZNSt7__cxx1112basic_stringIcSt11char_traitsIcESaIcEED1Ev(ptr noundef nonnull align 8 dereferenceable(32) %4) #19
  br label %34

34:                                               ; preds = %32, %30
  %.pn = phi { ptr, i32 } [ %33, %32 ], [ %31, %30 ]
  call void @_ZNSaIcED1Ev(ptr noundef nonnull align 1 dereferenceable(1) %5) #19
  resume { ptr, i32 } %.pn

35:                                               ; preds = %23
  %36 = getelementptr inbounds i8, ptr %0, i64 16
  %37 = load ptr, ptr %36, align 8
  %38 = getelementptr inbounds i8, ptr %0, i64 72
  %39 = getelementptr inbounds i8, ptr %0, i64 80
  %40 = load i64, ptr %39, align 8
  %41 = getelementptr inbounds i8, ptr %0, i64 8
  %42 = load i32, ptr %41, align 8
  %43 = getelementptr inbounds i8, ptr %0, i64 12
  %44 = load i32, ptr %43, align 4
  %45 = icmp sgt i32 %42, 0
  %46 = icmp sgt i32 %44, 0
  %or.cond = select i1 %45, i1 %46, i1 false
  br i1 %or.cond, label %.lr.ph50.us.preheader, label %.loopexit

.lr.ph50.us.preheader:                            ; preds = %35
  %wide.trip.count66 = zext nneg i32 %42 to i64
  %wide.trip.count61 = zext nneg i32 %44 to i64
  br label %.lr.ph50.us

.lr.ph50.us:                                      ; preds = %.lr.ph50.us.preheader, %._crit_edge.us
  %indvars.iv63 = phi i64 [ 0, %.lr.ph50.us.preheader ], [ %indvars.iv.next64, %._crit_edge.us ]
  %47 = load ptr, ptr %36, align 8
  %48 = load ptr, ptr %38, align 8
  %49 = load i64, ptr %48, align 8
  %50 = mul i64 %49, %indvars.iv63
  %51 = getelementptr inbounds i8, ptr %47, i64 %50
  br label %52

52:                                               ; preds = %.lr.ph50.us, %52
  %indvars.iv58 = phi i64 [ 0, %.lr.ph50.us ], [ %indvars.iv.next59, %52 ]
  %53 = load i64, ptr %1, align 8
  %54 = and i64 %53, 4294967295
  %55 = mul nuw i64 %54, 4164903690
  %56 = lshr i64 %53, 32
  %57 = add nuw i64 %55, %56
  store i64 %57, ptr %1, align 8
  %58 = trunc i64 %57 to i32
  %59 = urem i32 %58, %7
  %60 = udiv i32 %59, %44
  %61 = mul i32 %60, %44
  %.recomposed = urem i32 %59, %44
  %62 = getelementptr inbounds %"class.cv::Vec.12", ptr %51, i64 %indvars.iv58
  %63 = sext i32 %60 to i64
  %64 = mul i64 %40, %63
  %65 = getelementptr inbounds i8, ptr %37, i64 %64
  %66 = sext i32 %.recomposed to i64
  %67 = getelementptr inbounds %"class.cv::Vec.12", ptr %65, i64 %66
  call void @llvm.lifetime.start.p0(i64 16, ptr nonnull %.sroa.0.i46)
  call void @llvm.memcpy.p0.p0.i64(ptr noundef nonnull align 4 dereferenceable(16) %.sroa.0.i46, ptr noundef nonnull align 4 dereferenceable(16) %62, i64 16, i1 false)
  tail call void @llvm.memcpy.p0.p0.i64(ptr noundef nonnull align 4 dereferenceable(16) %62, ptr noundef nonnull align 4 dereferenceable(16) %67, i64 16, i1 false)
  call void @llvm.memcpy.p0.p0.i64(ptr noundef nonnull align 4 dereferenceable(16) %67, ptr noundef nonnull align 4 dereferenceable(16) %.sroa.0.i46, i64 16, i1 false)
  call void @llvm.lifetime.end.p0(i64 16, ptr nonnull %.sroa.0.i46)
  %indvars.iv.next59 = add nuw nsw i64 %indvars.iv58, 1
  %exitcond62.not = icmp eq i64 %indvars.iv.next59, %wide.trip.count61
  br i1 %exitcond62.not, label %._crit_edge.us, label %52, !llvm.loop !62

._crit_edge.us:                                   ; preds = %52
  %indvars.iv.next64 = add nuw nsw i64 %indvars.iv63, 1
  %exitcond67.not = icmp eq i64 %indvars.iv.next64, %wide.trip.count66
  br i1 %exitcond67.not, label %.loopexit, label %.lr.ph50.us, !llvm.loop !63

.loopexit:                                        ; preds = %.lr.ph, %._crit_edge.us, %10, %35
  ret void
}